; Function Attrs: mustprogress uwtable
define void @_ZNK5arrow7compute9InputType8ToStringB5cxx11Ev(ptr noalias sret(%"class.std::__cxx11::basic_string") align 8 %agg.result, ptr nocapture noundef nonnull readonly align 8 dereferenceable(40) %this) local_unnamed_addr #0 align 2 personality ptr @__gxx_personality_v0 {
entry:
  %ss = alloca %"class.std::__cxx11::basic_stringstream", align 8
  %ref.tmp = alloca %"class.std::__cxx11::basic_string", align 8
  %ref.tmp11 = alloca %"class.std::__cxx11::basic_string", align 8
  call void @_ZNSt7__cxx1118basic_stringstreamIcSt11char_traitsIcESaIcEEC1Ev(ptr noundef nonnull align 8 dereferenceable(128) %ss)
  %0 = load i32, ptr %this, align 8
  switch i32 %0, label %sw.epilog [
    i32 0, label %sw.bb
    i32 1, label %sw.bb2
    i32 2, label %sw.bb9
  ]

sw.bb:                                            ; preds = %entry
  %add.ptr = getelementptr inbounds i8, ptr %ss, i64 16
  %call = invoke noundef nonnull align 8 dereferenceable(8) ptr @_ZStlsISt11char_traitsIcEERSt13basic_ostreamIcT_ES5_PKc(ptr noundef nonnull align 8 dereferenceable(8) %add.ptr, ptr noundef nonnull @.str)
          to label %sw.epilog unwind label %lpad

lpad:                                             ; preds = %sw.epilog, %sw.bb9, %sw.bb2, %sw.bb
  %1 = landingpad { ptr, i32 }
          cleanup
  br label %ehcleanup

sw.bb2:                                           ; preds = %entry
  %type_ = getelementptr inbounds i8, ptr %this, i64 8
  %2 = load ptr, ptr %type_, align 8
  %vtable = load ptr, ptr %2, align 8
  %vfn = getelementptr inbounds i8, ptr %vtable, i64 32
  %3 = load ptr, ptr %vfn, align 8
  invoke void %3(ptr nonnull sret(%"class.std::__cxx11::basic_string") align 8 %ref.tmp, ptr noundef nonnull align 8 dereferenceable(72) %2)
          to label %invoke.cont5 unwind label %lpad

invoke.cont5:                                     ; preds = %sw.bb2
  %add.ptr3 = getelementptr inbounds i8, ptr %ss, i64 16
  %call8 = invoke noundef nonnull align 8 dereferenceable(8) ptr @_ZStlsIcSt11char_traitsIcESaIcEERSt13basic_ostreamIT_T0_ES7_RKNSt7__cxx1112basic_stringIS4_S5_T1_EE(ptr noundef nonnull align 8 dereferenceable(8) %add.ptr3, ptr noundef nonnull align 8 dereferenceable(32) %ref.tmp)
          to label %sw.epilog.sink.split unwind label %lpad6

lpad6:                                            ; preds = %invoke.cont5
  %4 = landingpad { ptr, i32 }
          cleanup
  call void @_ZNSt7__cxx1112basic_stringIcSt11char_traitsIcESaIcEED1Ev(ptr noundef nonnull align 8 dereferenceable(32) %ref.tmp) #18
  br label %ehcleanup

sw.bb9:                                           ; preds = %entry
  %type_matcher_ = getelementptr inbounds i8, ptr %this, i64 24
  %5 = load ptr, ptr %type_matcher_, align 8
  %vtable13 = load ptr, ptr %5, align 8
  %vfn14 = getelementptr inbounds i8, ptr %vtable13, i64 24
  %6 = load ptr, ptr %vfn14, align 8
  invoke void %6(ptr nonnull sret(%"class.std::__cxx11::basic_string") align 8 %ref.tmp11, ptr noundef nonnull align 8 dereferenceable(8) %5)
          to label %invoke.cont15 unwind label %lpad

invoke.cont15:                                    ; preds = %sw.bb9
  %add.ptr10 = getelementptr inbounds i8, ptr %ss, i64 16
  %call18 = invoke noundef nonnull align 8 dereferenceable(8) ptr @_ZStlsIcSt11char_traitsIcESaIcEERSt13basic_ostreamIT_T0_ES7_RKNSt7__cxx1112basic_stringIS4_S5_T1_EE(ptr noundef nonnull align 8 dereferenceable(8) %add.ptr10, ptr noundef nonnull align 8 dereferenceable(32) %ref.tmp11)
          to label %sw.epilog.sink.split unwind label %lpad16

lpad16:                                           ; preds = %invoke.cont15
  %7 = landingpad { ptr, i32 }
          cleanup
  call void @_ZNSt7__cxx1112basic_stringIcSt11char_traitsIcESaIcEED1Ev(ptr noundef nonnull align 8 dereferenceable(32) %ref.tmp11) #18
  br label %ehcleanup

sw.epilog.sink.split:                             ; preds = %invoke.cont15, %invoke.cont5
  %ref.tmp11.sink = phi ptr [ %ref.tmp, %invoke.cont5 ], [ %ref.tmp11, %invoke.cont15 ]
  call void @_ZNSt7__cxx1112basic_stringIcSt11char_traitsIcESaIcEED1Ev(ptr noundef nonnull align 8 dereferenceable(32) %ref.tmp11.sink) #18
  br label %sw.epilog

sw.epilog:                                        ; preds = %sw.epilog.sink.split, %entry, %sw.bb
  invoke void @_ZNKSt7__cxx1118basic_stringstreamIcSt11char_traitsIcESaIcEE3strEv(ptr sret(%"class.std::__cxx11::basic_string") align 8 %agg.result, ptr noundef nonnull align 8 dereferenceable(128) %ss)
          to label %invoke.cont22 unwind label %lpad

invoke.cont22:                                    ; preds = %sw.epilog
  call void @_ZNSt7__cxx1118basic_stringstreamIcSt11char_traitsIcESaIcEED1Ev(ptr noundef nonnull align 8 dereferenceable(128) %ss) #18
  ret void

ehcleanup:                                        ; preds = %lpad16, %lpad6, %lpad
  %.pn = phi { ptr, i32 } [ %1, %lpad ], [ %7, %lpad16 ], [ %4, %lpad6 ]
  call void @_ZNSt7__cxx1118basic_stringstreamIcSt11char_traitsIcESaIcEED1Ev(ptr noundef nonnull align 8 dereferenceable(128) %ss) #18
  resume { ptr, i32 } %.pn
}